target datalayout = "e-m:e-p270:32:32-p271:32:32-p272:64:64-i64:64-i128:128-f80:128-n8:16:32:64-S128"
target triple = "x86_64-pc-linux-gnu"

%struct.dbd_rec_msg_t = type { ptr }

@.str.1 = private unnamed_addr constant [18 x i8] c"Unknown pack type\00", align 1

; Function Attrs: nounwind uwtable
define internal void @_pack_rec_msg(ptr noundef %0, i16 noundef zeroext %1, i32 noundef %2, ptr noundef %3) #0 {
  %5 = alloca ptr, align 8
  %6 = alloca i16, align 2
  %7 = alloca i32, align 4
  %8 = alloca ptr, align 8
  %9 = alloca ptr, align 8
  store ptr %0, ptr %5, align 8
  store i16 %1, ptr %6, align 2
  store i32 %2, ptr %7, align 4
  store ptr %3, ptr %8, align 8
  call void @llvm.lifetime.start.p0(i64 8, ptr %9) #5
  %10 = load i32, ptr %7, align 4
  switch i32 %10, label %12 [
    i32 1461, label %11
    i32 1462, label %11
    i32 1463, label %11
  ]

11:                                               ; preds = %4, %4, %4
  store ptr @slurmdb_pack_reservation_rec, ptr %9, align 8
  br label %13

12:                                               ; preds = %4
  call void (ptr, ...) @fatal(ptr noundef @.str.1) #7
  unreachable

13:                                               ; preds = %11
  %14 = load ptr, ptr %9, align 8
  %15 = load ptr, ptr %5, align 8
  %16 = getelementptr inbounds nuw %struct.dbd_rec_msg_t, ptr %15, i32 0, i32 0
  %17 = load ptr, ptr %16, align 8
  %18 = load i16, ptr %6, align 2
  %19 = load ptr, ptr %8, align 8
  call void %14(ptr noundef %17, i16 noundef zeroext %18, ptr noundef %19)
  call void @llvm.lifetime.end.p0(i64 8, ptr %9) #5
  ret void
}