; Function Attrs: nounwind uwtable
define internal fastcc void @_pack_rec_msg(ptr noundef readonly captures(none) %0, i16 noundef zeroext %1, i32 noundef range(i32 0, 65536) %2, ptr noundef %3) unnamed_addr #0 {
  %trunc = trunc nuw i32 %2 to i16
  %trunc.off = add i16 %trunc, -1461
  %switch = icmp ult i16 %trunc.off, 3
  br i1 %switch, label %5, label %7

5:                                                ; preds = %4
  %6 = load ptr, ptr %0, align 8
  tail call void @slurmdb_pack_reservation_rec(ptr noundef %6, i16 noundef zeroext %1, ptr noundef %3) #5
  ret void

7:                                                ; preds = %4
  tail call void (ptr, ...) @fatal(ptr noundef nonnull @.str.1) #6
  unreachable
}